	.file	"init.c"
	.text
.Ltext0:
	.cfi_sections	.debug_frame
	.file 0 "/home/will/WIX/kernel" "src/init/init.c"
	.globl	cur_task
	.section	.bss
	.align 4
	.type	cur_task, @object
	.size	cur_task, 4
cur_task:
	.zero	4
	.globl	base_task
	.align 4
	.type	base_task, @object
	.size	base_task, 16
base_task:
	.zero	16
	.section	.rodata
	.align 4
.LC0:
	.string	"\nEAX: %x ECX: %x EBX: %x EDX: %x\nEBP: %x ESP: %x ESI: %x EDI: %x\n"
	.text
	.globl	dump_regs
	.type	dump_regs, @function
dump_regs:
.LFB0:
	.file 1 "src/init/init.c"
	.loc 1 39 35
	.cfi_startproc
	pushl	%ebp
	.cfi_def_cfa_offset 8
	.cfi_offset 5, -8
	movl	%esp, %ebp
	.cfi_def_cfa_register 5
	pushl	%edi
	pushl	%esi
	pushl	%ebx
	subl	$28, %esp
	.cfi_offset 7, -12
	.cfi_offset 6, -16
	.cfi_offset 3, -20
	.loc 1 40 5
	movl	dbg_printf, %edi
	movl	8(%ebp), %eax
	movl	(%eax), %ecx
	movl	8(%ebp), %eax
	movl	4(%eax), %esi
	movl	8(%ebp), %eax
	movl	12(%eax), %eax
	movl	%eax, -28(%ebp)
	movl	8(%ebp), %eax
	movl	8(%eax), %edx
	movl	%edx, -32(%ebp)
	movl	8(%ebp), %eax
	movl	20(%eax), %ebx
	movl	%ebx, -36(%ebp)
	movl	8(%ebp), %eax
	movl	16(%eax), %ebx
	movl	8(%ebp), %eax
	movl	24(%eax), %edx
	movl	8(%ebp), %eax
	movl	28(%eax), %eax
	subl	$12, %esp
	pushl	%ecx
	pushl	%esi
	pushl	-28(%ebp)
	pushl	-32(%ebp)
	pushl	-36(%ebp)
	pushl	%ebx
	pushl	%edx
	pushl	%eax
	pushl	$.LC0
	call	*%edi
.LVL0:
	addl	$48, %esp
	.loc 1 41 1
	nop
	leal	-12(%ebp), %esp
	popl	%ebx
	.cfi_restore 3
	popl	%esi
	.cfi_restore 6
	popl	%edi
	.cfi_restore 7
	popl	%ebp
	.cfi_restore 5
	.cfi_def_cfa 4, 4
	ret
	.cfi_endproc
.LFE0:
	.size	dump_regs, .-dump_regs
	.globl	pit_isr
	.type	pit_isr, @function
pit_isr:
.LFB1:
	.loc 1 44 37
	.cfi_startproc
	pushl	%ebp
	.cfi_def_cfa_offset 8
	.cfi_offset 5, -8
	movl	%esp, %ebp
	.cfi_def_cfa_register 5
	subl	$8, %esp
	.loc 1 48 5
	subl	$12, %esp
	pushl	$0
	call	pic_send_eoi
	addl	$16, %esp
	.loc 1 50 5
	subl	$12, %esp
	pushl	8(%ebp)
	call	task_switch
	addl	$16, %esp
	.loc 1 52 1
	nop
	leave
	.cfi_restore 5
	.cfi_def_cfa 4, 4
	ret
	.cfi_endproc
.LFE1:
	.size	pit_isr, .-pit_isr
	.globl	syscall_handler
	.type	syscall_handler, @function
syscall_handler:
.LFB2:
	.loc 1 54 45
	.cfi_startproc
	pushl	%ebp
	.cfi_def_cfa_offset 8
	.cfi_offset 5, -8
	movl	%esp, %ebp
	.cfi_def_cfa_register 5
	.loc 1 56 12
	movl	$195948557, %eax
	.loc 1 57 1
	popl	%ebp
	.cfi_restore 5
	.cfi_def_cfa 4, 4
	ret
	.cfi_endproc
.LFE2:
	.size	syscall_handler, .-syscall_handler
	.globl	init_tasking
	.type	init_tasking, @function
init_tasking:
.LFB3:
	.loc 1 59 20
	.cfi_startproc
	pushl	%ebp
	.cfi_def_cfa_offset 8
	.cfi_offset 5, -8
	movl	%esp, %ebp
	.cfi_def_cfa_register 5
	.loc 1 60 14
	movl	$base_task, cur_task
	.loc 1 61 20
	movl	cur_task, %eax
	movl	%eax, base_task+4
	.loc 1 62 1
	nop
	popl	%ebp
	.cfi_restore 5
	.cfi_def_cfa 4, 4
	ret
	.cfi_endproc
.LFE3:
	.size	init_tasking, .-init_tasking
	.section	.rodata
.LC1:
	.string	"Thread exit!\n"
	.text
	.globl	thread_exit
	.type	thread_exit, @function
thread_exit:
.LFB4:
	.loc 1 64 19
	.cfi_startproc
	pushl	%ebp
	.cfi_def_cfa_offset 8
	.cfi_offset 5, -8
	movl	%esp, %ebp
	.cfi_def_cfa_register 5
	subl	$8, %esp
	.loc 1 65 5
	call	disable_interrupts
	.loc 1 66 5
	movl	dbg_printf, %eax
	subl	$12, %esp
	pushl	$.LC1
	call	*%eax
.LVL1:
	addl	$16, %esp
.L7:
	.loc 1 67 10 discriminator 1
	jmp	.L7
	.cfi_endproc
.LFE4:
	.size	thread_exit, .-thread_exit
	.section	.rodata
.LC2:
	.string	"A"
	.text
	.globl	thread_fun_1
	.type	thread_fun_1, @function
thread_fun_1:
.LFB5:
	.loc 1 70 31
	.cfi_startproc
	pushl	%ebp
	.cfi_def_cfa_offset 8
	.cfi_offset 5, -8
	movl	%esp, %ebp
	.cfi_def_cfa_register 5
	subl	$8, %esp
.L9:
	.loc 1 72 9 discriminator 1
	movl	dbg_printf, %eax
	subl	$12, %esp
	pushl	$.LC2
	call	*%eax
.LVL2:
	addl	$16, %esp
	jmp	.L9
	.cfi_endproc
.LFE5:
	.size	thread_fun_1, .-thread_fun_1
	.section	.rodata
.LC3:
	.string	"B"
	.text
	.globl	thread_fun_2
	.type	thread_fun_2, @function
thread_fun_2:
.LFB6:
	.loc 1 77 31
	.cfi_startproc
	pushl	%ebp
	.cfi_def_cfa_offset 8
	.cfi_offset 5, -8
	movl	%esp, %ebp
	.cfi_def_cfa_register 5
	subl	$8, %esp
.L11:
	.loc 1 79 9 discriminator 1
	movl	dbg_printf, %eax
	subl	$12, %esp
	pushl	$.LC3
	call	*%eax
.LVL3:
	addl	$16, %esp
	jmp	.L11
	.cfi_endproc
.LFE6:
	.size	thread_fun_2, .-thread_fun_2
	.globl	create_thread
	.type	create_thread, @function
create_thread:
.LFB7:
	.loc 1 86 64
	.cfi_startproc
	pushl	%ebp
	.cfi_def_cfa_offset 8
	.cfi_offset 5, -8
	movl	%esp, %ebp
	.cfi_def_cfa_register 5
	subl	$24, %esp
	.loc 1 87 23
	subl	$12, %esp
	pushl	$4096
	call	heap_alloc
	addl	$16, %esp
	.loc 1 87 40
	addl	$4096, %eax
	.loc 1 87 15
	movl	%eax, -12(%ebp)
	.loc 1 89 10
	subl	$4, -12(%ebp)
	.loc 1 89 21
	movl	16(%ebp), %edx
	movl	-12(%ebp), %eax
	movl	%edx, (%eax)
	.loc 1 90 10
	subl	$4, -12(%ebp)
	.loc 1 90 21
	movl	$thread_exit, %edx
	movl	-12(%ebp), %eax
	movl	%edx, (%eax)
	.loc 1 91 10
	subl	$4, -12(%ebp)
	.loc 1 91 21
	movl	12(%ebp), %edx
	movl	-12(%ebp), %eax
	movl	%edx, (%eax)
	.loc 1 92 10
	subl	$4, -12(%ebp)
	.loc 1 92 21
	movl	-12(%ebp), %eax
	movl	$514, (%eax)
	.loc 1 93 10
	subl	$4, -12(%ebp)
	.loc 1 93 21
	movl	-12(%ebp), %eax
	movl	$0, (%eax)
	.loc 1 94 10
	subl	$4, -12(%ebp)
	.loc 1 94 21
	movl	-12(%ebp), %eax
	movl	$0, (%eax)
	.loc 1 95 10
	subl	$4, -12(%ebp)
	.loc 1 95 21
	movl	-12(%ebp), %eax
	movl	$0, (%eax)
	.loc 1 96 10
	subl	$4, -12(%ebp)
	.loc 1 96 21
	movl	-12(%ebp), %eax
	movl	$0, (%eax)
	.loc 1 97 10
	subl	$4, -12(%ebp)
	.loc 1 97 21
	movl	-12(%ebp), %eax
	movl	$0, (%eax)
	.loc 1 98 10
	subl	$4, -12(%ebp)
	.loc 1 98 21
	movl	-12(%ebp), %eax
	movl	$0, (%eax)
	.loc 1 99 10
	subl	$4, -12(%ebp)
	.loc 1 99 21
	movl	-12(%ebp), %eax
	movl	$0, (%eax)
	.loc 1 101 15
	movl	-12(%ebp), %edx
	movl	8(%ebp), %eax
	movl	%edx, (%eax)
	.loc 1 102 1
	nop
	leave
	.cfi_restore 5
	.cfi_def_cfa 4, 4
	ret
	.cfi_endproc
.LFE7:
	.size	create_thread, .-create_thread
	.section	.rodata
.LC4:
	.string	"About to enable interrupts\n"
	.text
	.globl	spawn_thread
	.type	spawn_thread, @function
spawn_thread:
.LFB8:
	.loc 1 104 52
	.cfi_startproc
	pushl	%ebp
	.cfi_def_cfa_offset 8
	.cfi_offset 5, -8
	movl	%esp, %ebp
	.cfi_def_cfa_register 5
	subl	$24, %esp
	.loc 1 105 5
	call	disable_interrupts
	.loc 1 106 28
	movl	cur_task, %eax
	.loc 1 106 13
	movl	4(%eax), %eax
	movl	%eax, -12(%ebp)
	.loc 1 107 22
	subl	$12, %esp
	pushl	$16
	call	heap_alloc
	addl	$16, %esp
	movl	%eax, %edx
	.loc 1 107 13
	movl	cur_task, %eax
	.loc 1 107 20
	movl	%edx, 4(%eax)
	.loc 1 108 13
	movl	cur_task, %eax
	movl	4(%eax), %eax
	.loc 1 108 26
	movl	cur_task, %edx
	movl	%edx, 8(%eax)
	.loc 1 109 13
	movl	cur_task, %eax
	movl	4(%eax), %eax
	.loc 1 109 26
	movl	-12(%ebp), %edx
	movl	%edx, 4(%eax)
	.loc 1 110 26
	movl	cur_task, %eax
	movl	4(%eax), %edx
	.loc 1 110 16
	movl	-12(%ebp), %eax
	movl	%edx, 8(%eax)
	.loc 1 112 17
	movl	cur_task, %eax
	movl	8(%eax), %eax
	.loc 1 112 7
	testl	%eax, %eax
	jne	.L14
	.loc 1 112 33 discriminator 1
	movl	cur_task, %eax
	.loc 1 112 40 discriminator 1
	movl	-12(%ebp), %edx
	movl	%edx, 8(%eax)
.L14:
	.loc 1 114 27
	movl	cur_task, %eax
	movl	4(%eax), %eax
	.loc 1 114 5
	subl	$4, %esp
	pushl	12(%ebp)
	pushl	8(%ebp)
	pushl	%eax
	call	create_thread
	addl	$16, %esp
	.loc 1 116 5
	movl	dbg_printf, %eax
	subl	$12, %esp
	pushl	$.LC4
	call	*%eax
.LVL4:
	addl	$16, %esp
	.loc 1 118 5
	call	enable_interrupts
	.loc 1 120 20
	movl	cur_task, %eax
	movl	4(%eax), %eax
	.loc 1 121 1
	leave
	.cfi_restore 5
	.cfi_def_cfa 4, 4
	ret
	.cfi_endproc
.LFE8:
	.size	spawn_thread, .-spawn_thread
	.globl	print
	.type	print, @function
print:
.LFB9:
	.loc 1 128 22
	.cfi_startproc
	pushl	%ebp
	.cfi_def_cfa_offset 8
	.cfi_offset 5, -8
	movl	%esp, %ebp
	.cfi_def_cfa_register 5
	subl	$8, %esp
	.loc 1 129 5
	subl	$12, %esp
	pushl	8(%ebp)
	call	strlen
	addl	$16, %esp
	subl	$8, %esp
	pushl	%eax
	pushl	8(%ebp)
	call	tty_write
	addl	$16, %esp
	.loc 1 130 1
	nop
	leave
	.cfi_restore 5
	.cfi_def_cfa 4, 4
	ret
	.cfi_endproc
.LFE9:
	.size	print, .-print
	.section	.rodata
.LC5:
	.string	"Hello %d\n"
	.text
	.globl	_start
	.type	_start, @function
_start:
.LFB10:
	.loc 1 132 45
	.cfi_startproc
	pushl	%ebp
	.cfi_def_cfa_offset 8
	.cfi_offset 5, -8
	movl	%esp, %ebp
	.cfi_def_cfa_register 5
	subl	$56, %esp
	.loc 1 134 9
	movl	$0, -12(%ebp)
	.loc 1 135 5
	call	pmm_init
	.loc 1 137 24
	movl	8(%ebp), %eax
	movl	8(%eax), %eax
	.loc 1 137 16
	movl	%eax, dbg_printf
	.loc 1 139 5
	subl	$12, %esp
	pushl	$1048576
	call	sbrk
	addl	$16, %esp
	.loc 1 140 5
	call	heap_init
	.loc 1 141 5
	call	init_tasking
	.loc 1 142 5
	subl	$8, %esp
	pushl	$120
	pushl	$112
	call	pic_remap
	addl	$16, %esp
	.loc 1 143 5
	call	idt_init
	.loc 1 144 5
	subl	$8, %esp
	pushl	$pit_isr
	pushl	$112
	call	set_isr
	addl	$16, %esp
	.loc 1 145 5
	subl	$8, %esp
	pushl	$syscall_handler
	pushl	$128
	call	set_isr
	addl	$16, %esp
	.loc 1 147 5
	call	gdt_init
	.loc 1 149 5
	subl	$4, %esp
	pushl	$2097152
	pushl	$753664
	pushl	$196608
	call	map_page
	addl	$16, %esp
	.loc 1 151 5
	subl	$8, %esp
	pushl	$52
	pushl	$67
	call	io_write_8
	addl	$16, %esp
	.loc 1 154 2
	subl	$8, %esp
	pushl	$223
	pushl	$64
	call	io_write_8
	addl	$16, %esp
	.loc 1 155 2
	subl	$8, %esp
	pushl	$4
	pushl	$64
	call	io_write_8
	addl	$16, %esp
	.loc 1 159 5
	call	tty_init
	.loc 1 165 5
	subl	$8, %esp
	pushl	$0
	pushl	$thread_fun_1
	call	spawn_thread
	addl	$16, %esp
	.loc 1 166 5
	subl	$8, %esp
	pushl	$0
	pushl	$thread_fun_2
	call	spawn_thread
	addl	$16, %esp
.L18:
.LBB2:
	.loc 1 173 9 discriminator 1
	movl	-12(%ebp), %eax
	leal	1(%eax), %edx
	movl	%edx, -12(%ebp)
	subl	$4, %esp
	pushl	%eax
	pushl	$.LC5
	leal	-52(%ebp), %eax
	pushl	%eax
	call	sprintf
	addl	$16, %esp
	.loc 1 174 9 discriminator 1
	subl	$12, %esp
	leal	-52(%ebp), %eax
	pushl	%eax
	call	strlen
	addl	$16, %esp
	subl	$8, %esp
	pushl	%eax
	leal	-52(%ebp), %eax
	pushl	%eax
	call	tty_write
	addl	$16, %esp
.LBE2:
	.loc 1 172 13 discriminator 1
	jmp	.L18
	.cfi_endproc
.LFE10:
	.size	_start, .-_start
.Letext0:
	.file 2 "/usr/local/i386elfgcc/lib/gcc/i386-elf/12.2.0/include/stdint-gcc.h"
	.file 3 "include/init/idt.h"
	.file 4 "include/mm/vmm.h"
	.file 5 "include/libk/stdio.h"
	.file 6 "include/init/pic.h"
	.file 7 "include/init/gdt.h"
	.file 8 "include/mm/pmm.h"